target datalayout = "e-m:e-p270:32:32-p271:32:32-p272:64:64-i64:64-i128:128-f80:128-n8:16:32:64-S128"
target triple = "x86_64-pc-linux-gnu"

@hf_control_feature_set = internal global i32 0, align 4
@ett_features = internal global i32 0, align 4
@hfx_control_feature_set_7 = internal constant [3 x ptr] [ptr @hf_control_feature_set_channel_sounding_tone_quality_indication, ptr @hf_control_feature_set_reserved_bits_page_7, ptr null], align 16
@hfx_control_feature_set_8 = internal constant [3 x ptr] [ptr @hf_control_feature_set_reserved_bits_page_8, ptr @hf_control_feature_set_ll_extended_feature_set, ptr null], align 16

; Function Attrs: null_pointer_is_valid sspstrong uwtable
define internal i32 @dissect_feature_set(ptr noundef %0, ptr noundef %1, i32 noundef %2) #0 {
  %4 = alloca ptr, align 8
  %5 = alloca ptr, align 8
  %6 = alloca i32, align 4
  %7 = alloca ptr, align 8
  %8 = alloca ptr, align 8
  store ptr %0, ptr %4, align 8
  store ptr %1, ptr %5, align 8
  store i32 %2, ptr %6, align 4
  call void @llvm.lifetime.start.p0(i64 8, ptr %7) #13
  call void @llvm.lifetime.start.p0(i64 8, ptr %8) #13
  %9 = load ptr, ptr %5, align 8
  %10 = load i32, ptr @hf_control_feature_set, align 4
  %11 = load ptr, ptr %4, align 8
  %12 = load i32, ptr %6, align 4
  %13 = call ptr @proto_tree_add_item(ptr noundef %9, i32 noundef %10, ptr noundef %11, i32 noundef %12, i32 noundef 8, i32 noundef -2147483648)
  store ptr %13, ptr %7, align 8
  %14 = load ptr, ptr %7, align 8
  %15 = load i32, ptr @ett_features, align 4
  %16 = call ptr @proto_item_add_subtree(ptr noundef %14, i32 noundef %15)
  store ptr %16, ptr %8, align 8
  %17 = load ptr, ptr %8, align 8
  %18 = load ptr, ptr %4, align 8
  %19 = load i32, ptr %6, align 4
  call void @proto_tree_add_bitmask_list(ptr noundef %17, ptr noundef %18, i32 noundef %19, i32 noundef 1, ptr noundef @hfx_control_feature_set_1, i32 noundef 0)
  %20 = load i32, ptr %6, align 4
  %21 = add i32 %20, 1
  store i32 %21, ptr %6, align 4
  %22 = load ptr, ptr %8, align 8
  %23 = load ptr, ptr %4, align 8
  %24 = load i32, ptr %6, align 4
  call void @proto_tree_add_bitmask_list(ptr noundef %22, ptr noundef %23, i32 noundef %24, i32 noundef 1, ptr noundef @hfx_control_feature_set_2, i32 noundef 0)
  %25 = load i32, ptr %6, align 4
  %26 = add i32 %25, 1
  store i32 %26, ptr %6, align 4
  %27 = load ptr, ptr %8, align 8
  %28 = load ptr, ptr %4, align 8
  %29 = load i32, ptr %6, align 4
  call void @proto_tree_add_bitmask_list(ptr noundef %27, ptr noundef %28, i32 noundef %29, i32 noundef 1, ptr noundef @hfx_control_feature_set_3, i32 noundef 0)
  %30 = load i32, ptr %6, align 4
  %31 = add i32 %30, 1
  store i32 %31, ptr %6, align 4
  %32 = load ptr, ptr %8, align 8
  %33 = load ptr, ptr %4, align 8
  %34 = load i32, ptr %6, align 4
  call void @proto_tree_add_bitmask_list(ptr noundef %32, ptr noundef %33, i32 noundef %34, i32 noundef 1, ptr noundef @hfx_control_feature_set_4, i32 noundef 0)
  %35 = load i32, ptr %6, align 4
  %36 = add i32 %35, 1
  store i32 %36, ptr %6, align 4
  %37 = load ptr, ptr %8, align 8
  %38 = load ptr, ptr %4, align 8
  %39 = load i32, ptr %6, align 4
  call void @proto_tree_add_bitmask_list(ptr noundef %37, ptr noundef %38, i32 noundef %39, i32 noundef 1, ptr noundef @hfx_control_feature_set_5, i32 noundef 0)
  %40 = load i32, ptr %6, align 4
  %41 = add i32 %40, 1
  store i32 %41, ptr %6, align 4
  %42 = load ptr, ptr %8, align 8
  %43 = load ptr, ptr %4, align 8
  %44 = load i32, ptr %6, align 4
  call void @proto_tree_add_bitmask_list(ptr noundef %42, ptr noundef %43, i32 noundef %44, i32 noundef 1, ptr noundef @hfx_control_feature_set_6, i32 noundef 0)
  %45 = load i32, ptr %6, align 4
  %46 = add i32 %45, 1
  store i32 %46, ptr %6, align 4
  %47 = load ptr, ptr %8, align 8
  %48 = load ptr, ptr %4, align 8
  %49 = load i32, ptr %6, align 4
  call void @proto_tree_add_bitmask_list(ptr noundef %47, ptr noundef %48, i32 noundef %49, i32 noundef 1, ptr noundef @hfx_control_feature_set_7, i32 noundef 0)
  %50 = load i32, ptr %6, align 4
  %51 = add i32 %50, 1
  store i32 %51, ptr %6, align 4
  %52 = load ptr, ptr %8, align 8
  %53 = load ptr, ptr %4, align 8
  %54 = load i32, ptr %6, align 4
  call void @proto_tree_add_bitmask_list(ptr noundef %52, ptr noundef %53, i32 noundef %54, i32 noundef 1, ptr noundef @hfx_control_feature_set_8, i32 noundef 0)
  %55 = load i32, ptr %6, align 4
  %56 = add i32 %55, 1
  store i32 %56, ptr %6, align 4
  %57 = load i32, ptr %6, align 4
  call void @llvm.lifetime.end.p0(i64 8, ptr %8) #13
  call void @llvm.lifetime.end.p0(i64 8, ptr %7) #13
  ret i32 %57
}