; Function Attrs: null_pointer_is_valid sspstrong uwtable
define internal fastcc range(i32 11, 13) i32 @dissect_feature_set(ptr noundef %0, ptr noundef %1, i32 noundef range(i32 3, 5) %2) unnamed_addr #0 {
  %4 = load i32, ptr @hf_control_feature_set, align 4
  %5 = tail call ptr @proto_tree_add_item(ptr noundef %1, i32 noundef %4, ptr noundef %0, i32 noundef %2, i32 noundef 8, i32 noundef -2147483648)
  %6 = load i32, ptr @ett_features, align 4
  %7 = tail call ptr @proto_item_add_subtree(ptr noundef %5, i32 noundef %6)
  tail call void @proto_tree_add_bitmask_list(ptr noundef %7, ptr noundef %0, i32 noundef %2, i32 noundef 1, ptr noundef nonnull @hfx_control_feature_set_1, i32 noundef 0)
  %8 = add nuw nsw i32 %2, 1
  tail call void @proto_tree_add_bitmask_list(ptr noundef %7, ptr noundef %0, i32 noundef %8, i32 noundef 1, ptr noundef nonnull @hfx_control_feature_set_2, i32 noundef 0)
  %9 = add nuw nsw i32 %2, 2
  tail call void @proto_tree_add_bitmask_list(ptr noundef %7, ptr noundef %0, i32 noundef %9, i32 noundef 1, ptr noundef nonnull @hfx_control_feature_set_3, i32 noundef 0)
  %10 = add nuw nsw i32 %2, 3
  tail call void @proto_tree_add_bitmask_list(ptr noundef %7, ptr noundef %0, i32 noundef %10, i32 noundef 1, ptr noundef nonnull @hfx_control_feature_set_4, i32 noundef 0)
  %11 = add nuw nsw i32 %2, 4
  tail call void @proto_tree_add_bitmask_list(ptr noundef %7, ptr noundef %0, i32 noundef %11, i32 noundef 1, ptr noundef nonnull @hfx_control_feature_set_5, i32 noundef 0)
  %12 = add nuw nsw i32 %2, 5
  tail call void @proto_tree_add_bitmask_list(ptr noundef %7, ptr noundef %0, i32 noundef %12, i32 noundef 1, ptr noundef nonnull @hfx_control_feature_set_6, i32 noundef 0)
  %13 = add nuw nsw i32 %2, 6
  tail call void @proto_tree_add_bitmask_list(ptr noundef %7, ptr noundef %0, i32 noundef %13, i32 noundef 1, ptr noundef nonnull @hfx_control_feature_set_7, i32 noundef 0)
  %14 = add nuw nsw i32 %2, 7
  tail call void @proto_tree_add_bitmask_list(ptr noundef %7, ptr noundef %0, i32 noundef %14, i32 noundef 1, ptr noundef nonnull @hfx_control_feature_set_8, i32 noundef 0)
  %15 = or disjoint i32 %2, 8
  ret i32 %15
}